target datalayout = "e-m:e-p270:32:32-p271:32:32-p272:64:64-i64:64-i128:128-f80:128-n8:16:32:64-S128"
target triple = "x86_64-pc-linux-gnu"

%struct._GSList = type { ptr, ptr }

@stderr = external global ptr, align 8
@.str.80 = private unnamed_addr constant [79 x i8] c"editcap: The available output compress type(s) for the \22--compress\22 flag are:\0A\00", align 1
@.str.81 = private unnamed_addr constant [7 x i8] c"   %s\0A\00", align 1

; Function Attrs: null_pointer_is_valid sspstrong uwtable
define internal void @list_output_compression_types() #0 {
  %1 = alloca ptr, align 8
  %2 = alloca ptr, align 8
  call void @llvm.lifetime.start.p0(i64 8, ptr %1) #14
  %3 = load ptr, ptr @stderr, align 8
  %4 = call i32 (ptr, i32, ptr, ...) @__fprintf_chk(ptr noundef %3, i32 noundef 2, ptr noundef @.str.80)
  %5 = call ptr @wtap_get_all_output_compression_type_names_list()
  store ptr %5, ptr %1, align 8
  call void @llvm.lifetime.start.p0(i64 8, ptr %2) #14
  %6 = load ptr, ptr %1, align 8
  store ptr %6, ptr %2, align 8
  br label %7

7:                                                ; preds = %25, %0
  %8 = load ptr, ptr %2, align 8
  %9 = icmp ne ptr %8, null
  br i1 %9, label %11, label %10

10:                                               ; preds = %7
  call void @llvm.lifetime.end.p0(i64 8, ptr %2) #14
  br label %27

11:                                               ; preds = %7
  %12 = load ptr, ptr @stderr, align 8
  %13 = load ptr, ptr %2, align 8
  %14 = getelementptr inbounds nuw %struct._GSList, ptr %13, i32 0, i32 0
  %15 = load ptr, ptr %14, align 8
  %16 = call i32 (ptr, i32, ptr, ...) @__fprintf_chk(ptr noundef %12, i32 noundef 2, ptr noundef @.str.81, ptr noundef %15)
  br label %17

17:                                               ; preds = %11
  %18 = load ptr, ptr %2, align 8
  %19 = icmp ne ptr %18, null
  br i1 %19, label %20, label %24

20:                                               ; preds = %17
  %21 = load ptr, ptr %2, align 8
  %22 = getelementptr inbounds nuw %struct._GSList, ptr %21, i32 0, i32 1
  %23 = load ptr, ptr %22, align 8
  br label %25

24:                                               ; preds = %17
  br label %25

25:                                               ; preds = %24, %20
  %26 = phi ptr [ %23, %20 ], [ null, %24 ]
  store ptr %26, ptr %2, align 8
  br label %7, !llvm.loop !29

27:                                               ; preds = %10
  %28 = load ptr, ptr %1, align 8
  call void @g_slist_free(ptr noundef %28)
  call void @llvm.lifetime.end.p0(i64 8, ptr %1) #14
  ret void
}