; Function Attrs: null_pointer_is_valid sspstrong uwtable
define internal fastcc void @list_output_compression_types() unnamed_addr #0 {
  %1 = load ptr, ptr @stderr, align 8
  %2 = tail call i32 (ptr, i32, ptr, ...) @__fprintf_chk(ptr noundef %1, i32 noundef 2, ptr noundef nonnull @.str.80)
  %3 = tail call ptr @wtap_get_all_output_compression_type_names_list()
  %.not6 = icmp eq ptr %3, null
  br i1 %.not6, label %._crit_edge, label %.lr.ph

._crit_edge:                                      ; preds = %.lr.ph, %0
  tail call void @g_slist_free(ptr noundef %3)
  ret void

.lr.ph:                                           ; preds = %0, %.lr.ph
  %.07 = phi ptr [ %8, %.lr.ph ], [ %3, %0 ]
  %4 = load ptr, ptr @stderr, align 8
  %5 = load ptr, ptr %.07, align 8
  %6 = tail call i32 (ptr, i32, ptr, ...) @__fprintf_chk(ptr noundef %4, i32 noundef 2, ptr noundef nonnull @.str.81, ptr noundef %5)
  %7 = getelementptr inbounds nuw i8, ptr %.07, i64 8
  %8 = load ptr, ptr %7, align 8
  %.not = icmp eq ptr %8, null
  br i1 %.not, label %._crit_edge, label %.lr.ph, !llvm.loop !10
}